target datalayout = "e-m:e-p270:32:32-p271:32:32-p272:64:64-i64:64-i128:128-f80:128-n8:16:32:64-S128"
target triple = "x86_64-pc-linux-gnu"

%"class.llvm::function_ref.281" = type { ptr, i64 }

; Function Attrs: mustprogress nounwind uwtable
define dso_local void @_ZN4llvm31computeDeadSymbolsWithConstPropERNS_18ModuleSummaryIndexERKNS_8DenseSetImNS_12DenseMapInfoImvEEEENS_12function_refIFNS_14PrevailingTypeEmEEEb(ptr noundef nonnull align 8 dereferenceable(488) %0, ptr noundef nonnull align 8 dereferenceable(24) %1, ptr %2, i64 %3, i1 noundef zeroext %4) #1 {
  %6 = alloca %"class.llvm::function_ref.281", align 8
  %7 = alloca ptr, align 8
  %8 = alloca ptr, align 8
  %9 = alloca i8, align 1
  %10 = alloca %"class.llvm::function_ref.281", align 8
  %11 = getelementptr inbounds nuw { ptr, i64 }, ptr %6, i32 0, i32 0
  store ptr %2, ptr %11, align 8
  %12 = getelementptr inbounds nuw { ptr, i64 }, ptr %6, i32 0, i32 1
  store i64 %3, ptr %12, align 8
  store ptr %0, ptr %7, align 8
  store ptr %1, ptr %8, align 8
  %13 = zext i1 %4 to i8
  store i8 %13, ptr %9, align 1
  %14 = load ptr, ptr %7, align 8
  %15 = load ptr, ptr %8, align 8
  call void @llvm.memcpy.p0.p0.i64(ptr align 8 %10, ptr align 8 %6, i64 16, i1 false)
  %16 = getelementptr inbounds nuw { ptr, i64 }, ptr %10, i32 0, i32 0
  %17 = load ptr, ptr %16, align 8
  %18 = getelementptr inbounds nuw { ptr, i64 }, ptr %10, i32 0, i32 1
  %19 = load i64, ptr %18, align 8
  call void @_ZN4llvm40computeDeadSymbolsAndUpdateIndirectCallsERNS_18ModuleSummaryIndexERKNS_8DenseSetImNS_12DenseMapInfoImvEEEENS_12function_refIFNS_14PrevailingTypeEmEEE(ptr noundef nonnull align 8 dereferenceable(488) %14, ptr noundef nonnull align 8 dereferenceable(24) %15, ptr %17, i64 %19)
  %20 = load i8, ptr %9, align 1
  %21 = trunc i8 %20 to i1
  br i1 %21, label %22, label %25

22:                                               ; preds = %5
  %23 = load ptr, ptr %7, align 8
  %24 = load ptr, ptr %8, align 8
  call void @_ZN4llvm18ModuleSummaryIndex19propagateAttributesERKNS_8DenseSetImNS_12DenseMapInfoImvEEEE(ptr noundef nonnull align 8 dereferenceable(488) %23, ptr noundef nonnull align 8 dereferenceable(24) %24)
  br label %25

25:                                               ; preds = %22, %5
  ret void
}