; Function Attrs: mustprogress nounwind uwtable
define dso_local void @_ZN4llvm31computeDeadSymbolsWithConstPropERNS_18ModuleSummaryIndexERKNS_8DenseSetImNS_12DenseMapInfoImvEEEENS_12function_refIFNS_14PrevailingTypeEmEEEb(ptr noundef nonnull align 8 dereferenceable(488) %0, ptr noundef nonnull align 8 dereferenceable(24) %1, ptr %2, i64 %3, i1 noundef zeroext %4) local_unnamed_addr #0 {
  tail call void @_ZN4llvm40computeDeadSymbolsAndUpdateIndirectCallsERNS_18ModuleSummaryIndexERKNS_8DenseSetImNS_12DenseMapInfoImvEEEENS_12function_refIFNS_14PrevailingTypeEmEEE(ptr noundef nonnull align 8 dereferenceable(488) %0, ptr noundef nonnull align 8 dereferenceable(24) %1, ptr %2, i64 %3)
  br i1 %4, label %6, label %7

6:                                                ; preds = %5
  tail call void @_ZN4llvm18ModuleSummaryIndex19propagateAttributesERKNS_8DenseSetImNS_12DenseMapInfoImvEEEE(ptr noundef nonnull align 8 dereferenceable(488) %0, ptr noundef nonnull align 8 dereferenceable(24) %1) #26
  br label %7

7:                                                ; preds = %6, %5
  ret void
}